; Function Attrs: mustprogress uwtable
define hidden void @_ZN5zxing30AdaptiveThresholdMeanBinarizer15createBinarizerENS_3RefINS_15LuminanceSourceEEE(ptr dead_on_unwind noalias writable writeonly sret(%"class.zxing::Ref.2") align 8 captures(none) %0, ptr nonnull readnone align 8 captures(none) %1, ptr noundef readonly captures(none) %2) unnamed_addr #0 align 2 personality ptr @__gxx_personality_v0 {
  %4 = alloca %"class.zxing::Ref", align 8
  %5 = tail call noalias noundef nonnull dereferenceable(128) ptr @_Znwm(i64 noundef 128) #13
  %6 = load ptr, ptr %2, align 8, !tbaa !3
  %.not.i.i = icmp eq ptr %6, null
  br i1 %.not.i.i, label %_ZN5zxing3RefINS_15LuminanceSourceEEC2ERKS2_.exit.thread, label %7

_ZN5zxing3RefINS_15LuminanceSourceEEC2ERKS2_.exit.thread: ; preds = %3
  call void @llvm.lifetime.start.p0(i64 8, ptr nonnull %4)
  br label %_ZN5zxing3RefINS_15LuminanceSourceEEC2ERKS2_.exit.i

7:                                                ; preds = %3
  %8 = getelementptr inbounds nuw i8, ptr %6, i64 8
  %9 = load i32, ptr %8, align 8, !tbaa !9
  call void @llvm.lifetime.start.p0(i64 8, ptr nonnull %4)
  %10 = add i32 %9, 2
  store i32 %10, ptr %8, align 8, !tbaa !9
  br label %_ZN5zxing3RefINS_15LuminanceSourceEEC2ERKS2_.exit.i

_ZN5zxing3RefINS_15LuminanceSourceEEC2ERKS2_.exit.i: ; preds = %_ZN5zxing3RefINS_15LuminanceSourceEEC2ERKS2_.exit.thread, %7
  store ptr %6, ptr %4, align 8, !tbaa !3
  invoke void @_ZN5zxing24GlobalHistogramBinarizerC2ENS_3RefINS_15LuminanceSourceEEE(ptr noundef nonnull align 8 dereferenceable(121) %5, ptr noundef nonnull %4)
          to label %11 unwind label %22

11:                                               ; preds = %_ZN5zxing3RefINS_15LuminanceSourceEEC2ERKS2_.exit.i
  %12 = load ptr, ptr %4, align 8, !tbaa !3
  %.not.i.i5 = icmp eq ptr %12, null
  br i1 %.not.i.i5, label %34, label %13

13:                                               ; preds = %11
  %14 = getelementptr inbounds nuw i8, ptr %12, i64 8
  %15 = load i32, ptr %14, align 8, !tbaa !9
  %16 = add i32 %15, -1
  store i32 %16, ptr %14, align 8, !tbaa !9
  %17 = icmp eq i32 %16, 0
  br i1 %17, label %18, label %34

18:                                               ; preds = %13
  store i32 -559026175, ptr %14, align 8, !tbaa !9
  %19 = load ptr, ptr %12, align 8, !tbaa !12
  %20 = getelementptr inbounds nuw i8, ptr %19, i64 8
  %21 = load ptr, ptr %20, align 8
  call void %21(ptr noundef nonnull align 8 dereferenceable(12) %12) #11
  br label %34

22:                                               ; preds = %_ZN5zxing3RefINS_15LuminanceSourceEEC2ERKS2_.exit.i
  %23 = landingpad { ptr, i32 }
          cleanup
  %24 = load ptr, ptr %4, align 8, !tbaa !3
  %.not.i2.i = icmp eq ptr %24, null
  br i1 %.not.i2.i, label %.body, label %25

25:                                               ; preds = %22
  %26 = getelementptr inbounds nuw i8, ptr %24, i64 8
  %27 = load i32, ptr %26, align 8, !tbaa !9
  %28 = add i32 %27, -1
  store i32 %28, ptr %26, align 8, !tbaa !9
  %29 = icmp eq i32 %28, 0
  br i1 %29, label %30, label %.body

30:                                               ; preds = %25
  store i32 -559026175, ptr %26, align 8, !tbaa !9
  %31 = load ptr, ptr %24, align 8, !tbaa !12
  %32 = getelementptr inbounds nuw i8, ptr %31, i64 8
  %33 = load ptr, ptr %32, align 8
  call void %33(ptr noundef nonnull align 8 dereferenceable(12) %24) #11
  br label %.body

34:                                               ; preds = %11, %13, %18
  store ptr getelementptr inbounds nuw inrange(-16, 48) (i8, ptr @_ZTVN5zxing30AdaptiveThresholdMeanBinarizerE, i64 16), ptr %5, align 8, !tbaa !12
  call void @llvm.lifetime.end.p0(i64 8, ptr nonnull %4)
  %35 = getelementptr inbounds nuw i8, ptr %5, i64 8
  %36 = load i32, ptr %35, align 8, !tbaa !9
  %37 = add i32 %36, 1
  store i32 %37, ptr %35, align 8, !tbaa !9
  store ptr %5, ptr %0, align 8, !tbaa !14
  br i1 %.not.i.i, label %_ZN5zxing3RefINS_15LuminanceSourceEED2Ev.exit, label %38

38:                                               ; preds = %34
  %39 = getelementptr inbounds nuw i8, ptr %6, i64 8
  %40 = load i32, ptr %39, align 8, !tbaa !9
  %41 = add i32 %40, -1
  store i32 %41, ptr %39, align 8, !tbaa !9
  %42 = icmp eq i32 %41, 0
  br i1 %42, label %43, label %_ZN5zxing3RefINS_15LuminanceSourceEED2Ev.exit

43:                                               ; preds = %38
  store i32 -559026175, ptr %39, align 8, !tbaa !9
  %44 = load ptr, ptr %6, align 8, !tbaa !12
  %45 = getelementptr inbounds nuw i8, ptr %44, i64 8
  %46 = load ptr, ptr %45, align 8
  call void %46(ptr noundef nonnull align 8 dereferenceable(12) %6) #11
  br label %_ZN5zxing3RefINS_15LuminanceSourceEED2Ev.exit

_ZN5zxing3RefINS_15LuminanceSourceEED2Ev.exit:    ; preds = %34, %38, %43
  ret void

.body:                                            ; preds = %22, %25, %30
  br i1 %.not.i.i, label %_ZN5zxing3RefINS_15LuminanceSourceEED2Ev.exit8, label %47

47:                                               ; preds = %.body
  %48 = getelementptr inbounds nuw i8, ptr %6, i64 8
  %49 = load i32, ptr %48, align 8, !tbaa !9
  %50 = add i32 %49, -1
  store i32 %50, ptr %48, align 8, !tbaa !9
  %51 = icmp eq i32 %50, 0
  br i1 %51, label %52, label %_ZN5zxing3RefINS_15LuminanceSourceEED2Ev.exit8

52:                                               ; preds = %47
  store i32 -559026175, ptr %48, align 8, !tbaa !9
  %53 = load ptr, ptr %6, align 8, !tbaa !12
  %54 = getelementptr inbounds nuw i8, ptr %53, i64 8
  %55 = load ptr, ptr %54, align 8
  call void %55(ptr noundef nonnull align 8 dereferenceable(12) %6) #11
  br label %_ZN5zxing3RefINS_15LuminanceSourceEED2Ev.exit8

_ZN5zxing3RefINS_15LuminanceSourceEED2Ev.exit8:   ; preds = %.body, %47, %52
  call void @_ZdlPv(ptr noundef nonnull %5) #12
  resume { ptr, i32 } %23
}